target datalayout = "e-m:e-p270:32:32-p271:32:32-p272:64:64-i64:64-i128:128-f80:128-n8:16:32:64-S128"
target triple = "x86_64-pc-linux-gnu"

%struct.AVProbeData = type { ptr, ptr, i32, ptr }

@.str.143 = private unnamed_addr constant [5 x i8] c"qoif\00", align 1

; Function Attrs: alwaysinline nounwind willreturn memory(none) uwtable
define internal i32 @av_bswap32(i32 noundef %0) #10 {
  %2 = alloca i32, align 4
  store i32 %0, ptr %2, align 4, !tbaa !28
  %3 = load i32, ptr %2, align 4, !tbaa !28
  %4 = shl i32 %3, 8
  %5 = and i32 %4, 65280
  %6 = load i32, ptr %2, align 4, !tbaa !28
  %7 = lshr i32 %6, 8
  %8 = and i32 %7, 255
  %9 = or i32 %5, %8
  %10 = shl i32 %9, 16
  %11 = load i32, ptr %2, align 4, !tbaa !28
  %12 = lshr i32 %11, 16
  %13 = shl i32 %12, 8
  %14 = and i32 %13, 65280
  %15 = load i32, ptr %2, align 4, !tbaa !28
  %16 = lshr i32 %15, 16
  %17 = lshr i32 %16, 8
  %18 = and i32 %17, 255
  %19 = or i32 %14, %18
  %20 = or i32 %10, %19
  ret i32 %20
}

; Function Attrs: nounwind uwtable
define internal i32 @qoi_probe(ptr noundef %0) #0 {
  %2 = alloca i32, align 4
  %3 = alloca ptr, align 8
  store ptr %0, ptr %3, align 8, !tbaa !139
  %4 = load ptr, ptr %3, align 8, !tbaa !139
  %5 = getelementptr inbounds nuw %struct.AVProbeData, ptr %4, i32 0, i32 1
  %6 = load ptr, ptr %5, align 8, !tbaa !96
  %7 = call i32 @memcmp(ptr noundef %6, ptr noundef @.str.143, i64 noundef 4) #13
  %8 = icmp ne i32 %7, 0
  br i1 %8, label %9, label %10

9:                                                ; preds = %1
  store i32 0, ptr %2, align 4
  br label %54

10:                                               ; preds = %1
  %11 = load ptr, ptr %3, align 8, !tbaa !139
  %12 = getelementptr inbounds nuw %struct.AVProbeData, ptr %11, i32 0, i32 1
  %13 = load ptr, ptr %12, align 8, !tbaa !96
  %14 = getelementptr inbounds i8, ptr %13, i64 4
  %15 = load i32, ptr %14, align 1, !tbaa !77
  %16 = call i32 @av_bswap32(i32 noundef %15) #15
  %17 = icmp eq i32 %16, 0
  br i1 %17, label %26, label %18

18:                                               ; preds = %10
  %19 = load ptr, ptr %3, align 8, !tbaa !139
  %20 = getelementptr inbounds nuw %struct.AVProbeData, ptr %19, i32 0, i32 1
  %21 = load ptr, ptr %20, align 8, !tbaa !96
  %22 = getelementptr inbounds i8, ptr %21, i64 8
  %23 = load i32, ptr %22, align 1, !tbaa !77
  %24 = call i32 @av_bswap32(i32 noundef %23) #15
  %25 = icmp eq i32 %24, 0
  br i1 %25, label %26, label %27

26:                                               ; preds = %18, %10
  store i32 0, ptr %2, align 4
  br label %54

27:                                               ; preds = %18
  %28 = load ptr, ptr %3, align 8, !tbaa !139
  %29 = getelementptr inbounds nuw %struct.AVProbeData, ptr %28, i32 0, i32 1
  %30 = load ptr, ptr %29, align 8, !tbaa !96
  %31 = getelementptr inbounds i8, ptr %30, i64 12
  %32 = load i8, ptr %31, align 1, !tbaa !77
  %33 = zext i8 %32 to i32
  %34 = icmp ne i32 %33, 3
  br i1 %34, label %35, label %44

35:                                               ; preds = %27
  %36 = load ptr, ptr %3, align 8, !tbaa !139
  %37 = getelementptr inbounds nuw %struct.AVProbeData, ptr %36, i32 0, i32 1
  %38 = load ptr, ptr %37, align 8, !tbaa !96
  %39 = getelementptr inbounds i8, ptr %38, i64 12
  %40 = load i8, ptr %39, align 1, !tbaa !77
  %41 = zext i8 %40 to i32
  %42 = icmp ne i32 %41, 4
  br i1 %42, label %43, label %44

43:                                               ; preds = %35
  store i32 0, ptr %2, align 4
  br label %54

44:                                               ; preds = %35, %27
  %45 = load ptr, ptr %3, align 8, !tbaa !139
  %46 = getelementptr inbounds nuw %struct.AVProbeData, ptr %45, i32 0, i32 1
  %47 = load ptr, ptr %46, align 8, !tbaa !96
  %48 = getelementptr inbounds i8, ptr %47, i64 13
  %49 = load i8, ptr %48, align 1, !tbaa !77
  %50 = zext i8 %49 to i32
  %51 = icmp sgt i32 %50, 1
  br i1 %51, label %52, label %53

52:                                               ; preds = %44
  store i32 0, ptr %2, align 4
  br label %54

53:                                               ; preds = %44
  store i32 99, ptr %2, align 4
  br label %54

54:                                               ; preds = %53, %52, %43, %26, %9
  %55 = load i32, ptr %2, align 4
  ret i32 %55
}