; Function Attrs: mustprogress nofree norecurse nounwind willreturn memory(read, inaccessiblemem: none) uwtable
define internal range(i32 0, 100) i32 @qoi_probe(ptr noundef readonly captures(none) %0) #9 {
  %2 = getelementptr inbounds nuw i8, ptr %0, i64 8
  %3 = load ptr, ptr %2, align 8, !tbaa !90
  %bcmp = tail call i32 @bcmp(ptr noundef nonnull dereferenceable(4) %3, ptr noundef nonnull dereferenceable(4) @.str.143, i64 4)
  %.not = icmp eq i32 %bcmp, 0
  br i1 %.not, label %4, label %19

4:                                                ; preds = %1
  %5 = getelementptr inbounds nuw i8, ptr %3, i64 4
  %6 = load i32, ptr %5, align 1, !tbaa !68
  %7 = icmp eq i32 %6, 0
  br i1 %7, label %19, label %8

8:                                                ; preds = %4
  %9 = getelementptr inbounds nuw i8, ptr %3, i64 8
  %10 = load i32, ptr %9, align 1, !tbaa !68
  %11 = icmp eq i32 %10, 0
  br i1 %11, label %19, label %12

12:                                               ; preds = %8
  %13 = getelementptr inbounds nuw i8, ptr %3, i64 12
  %14 = load i8, ptr %13, align 1, !tbaa !68
  %.off = add i8 %14, -3
  %switch = icmp ult i8 %.off, 2
  br i1 %switch, label %15, label %19

15:                                               ; preds = %12
  %16 = getelementptr inbounds nuw i8, ptr %3, i64 13
  %17 = load i8, ptr %16, align 1, !tbaa !68
  %18 = icmp ugt i8 %17, 1
  %. = select i1 %18, i32 0, i32 99
  br label %19

19:                                               ; preds = %12, %15, %4, %8, %1
  %.0 = phi i32 [ 0, %1 ], [ 0, %8 ], [ 0, %4 ], [ 0, %12 ], [ %., %15 ]
  ret i32 %.0
}